; Function Attrs: mustprogress uwtable
define hidden void @_ZN4cvc58internal6theory7strings11SkolemCache14mkSkolemCachedENS0_12NodeTemplateILb1EEENS3_14StringSkolemIdEPKc(ptr dead_on_unwind noalias writable sret(%"class.cvc5::internal::NodeTemplate") align 8 %0, ptr noundef nonnull align 8 dereferenceable(136) %1, ptr noundef readonly captures(none) %2, i32 noundef %3, ptr noundef %4) local_unnamed_addr #3 align 2 personality ptr @__gxx_personality_v0 {
  %6 = alloca %"class.cvc5::internal::NodeTemplate", align 8
  %7 = alloca %"class.cvc5::internal::NodeTemplate", align 8
  %8 = load ptr, ptr %2, align 8, !tbaa !34
  store ptr %8, ptr %6, align 8, !tbaa !34
  %9 = load i64, ptr %8, align 8
  %10 = lshr i64 %9, 40
  %11 = trunc nuw nsw i64 %10 to i32
  %12 = and i32 %11, 1048575
  %13 = icmp samesign ult i32 %12, 1048574
  br i1 %13, label %14, label %19, !prof !44

14:                                               ; preds = %5
  %15 = add i64 %9, 1099511627776
  %16 = and i64 %15, 1152920405095219200
  %17 = and i64 %9, -1152920405095219201
  %18 = or disjoint i64 %16, %17
  store i64 %18, ptr %8, align 8
  br label %_ZN4cvc58internal12NodeTemplateILb1EEC2ERKS2_.exit

19:                                               ; preds = %5
  %20 = icmp eq i32 %12, 1048574
  br i1 %20, label %21, label %_ZN4cvc58internal12NodeTemplateILb1EEC2ERKS2_.exit, !prof !43

21:                                               ; preds = %19
  %22 = or i64 %9, 1152920405095219200
  store i64 %22, ptr %8, align 8
  tail call void @_ZN4cvc58internal4expr9NodeValue20markRefCountMaxedOutEv(ptr noundef nonnull align 8 dereferenceable(24) %8)
  br label %_ZN4cvc58internal12NodeTemplateILb1EEC2ERKS2_.exit

_ZN4cvc58internal12NodeTemplateILb1EEC2ERKS2_.exit: ; preds = %14, %19, %21
  tail call void @llvm.experimental.noalias.scope.decl(metadata !70)
  %23 = load ptr, ptr @_ZN4cvc58internal12NodeTemplateILb1EE6s_nullE, align 8, !tbaa !34, !noalias !70
  store ptr %23, ptr %7, align 8, !tbaa !34, !alias.scope !70
  %24 = load i64, ptr %23, align 8, !noalias !70
  %25 = lshr i64 %24, 40
  %26 = trunc nuw nsw i64 %25 to i32
  %27 = and i32 %26, 1048575
  %28 = icmp samesign ult i32 %27, 1048574
  br i1 %28, label %29, label %34, !prof !44

29:                                               ; preds = %_ZN4cvc58internal12NodeTemplateILb1EEC2ERKS2_.exit
  %30 = add i64 %24, 1099511627776
  %31 = and i64 %30, 1152920405095219200
  %32 = and i64 %24, -1152920405095219201
  %33 = or disjoint i64 %31, %32
  store i64 %33, ptr %23, align 8, !noalias !70
  br label %_ZN4cvc58internal12NodeTemplateILb1EE4nullEv.exit

34:                                               ; preds = %_ZN4cvc58internal12NodeTemplateILb1EEC2ERKS2_.exit
  %35 = icmp eq i32 %27, 1048574
  br i1 %35, label %36, label %_ZN4cvc58internal12NodeTemplateILb1EE4nullEv.exit, !prof !43

36:                                               ; preds = %34
  %37 = or i64 %24, 1152920405095219200
  store i64 %37, ptr %23, align 8, !noalias !70
  invoke void @_ZN4cvc58internal4expr9NodeValue20markRefCountMaxedOutEv(ptr noundef nonnull align 8 dereferenceable(24) %23)
          to label %_ZN4cvc58internal12NodeTemplateILb1EE4nullEv.exit unwind label %63

_ZN4cvc58internal12NodeTemplateILb1EE4nullEv.exit: ; preds = %34, %29, %36
  invoke void @_ZN4cvc58internal6theory7strings11SkolemCache14mkSkolemCachedENS0_12NodeTemplateILb1EEES5_NS3_14StringSkolemIdEPKc(ptr dead_on_unwind writable sret(%"class.cvc5::internal::NodeTemplate") align 8 %0, ptr noundef nonnull align 8 dereferenceable(136) %1, ptr noundef nonnull %6, ptr noundef nonnull %7, i32 noundef %3, ptr noundef %4)
          to label %38 unwind label %65

38:                                               ; preds = %_ZN4cvc58internal12NodeTemplateILb1EE4nullEv.exit
  %39 = load i64, ptr %23, align 8
  %40 = and i64 %39, 1152920405095219200
  %.not.i.i = icmp eq i64 %40, 1152920405095219200
  br i1 %.not.i.i, label %_ZN4cvc58internal12NodeTemplateILb1EED2Ev.exit, label %41, !prof !43

41:                                               ; preds = %38
  %42 = add i64 %39, 1152920405095219200
  %43 = and i64 %42, 1152920405095219200
  %44 = and i64 %39, -1152920405095219201
  %45 = or disjoint i64 %43, %44
  store i64 %45, ptr %23, align 8
  %46 = icmp eq i64 %43, 0
  br i1 %46, label %47, label %_ZN4cvc58internal12NodeTemplateILb1EED2Ev.exit, !prof !43

47:                                               ; preds = %41
  invoke void @_ZN4cvc58internal4expr9NodeValue15markForDeletionEv(ptr noundef nonnull align 8 dereferenceable(24) %23)
          to label %_ZN4cvc58internal12NodeTemplateILb1EED2Ev.exit unwind label %48

48:                                               ; preds = %47
  %49 = landingpad { ptr, i32 }
          catch ptr null
  %50 = extractvalue { ptr, i32 } %49, 0
  tail call void @__clang_call_terminate(ptr %50) #25
  unreachable

_ZN4cvc58internal12NodeTemplateILb1EED2Ev.exit:   ; preds = %38, %41, %47
  %51 = load i64, ptr %8, align 8
  %52 = and i64 %51, 1152920405095219200
  %.not.i.i6 = icmp eq i64 %52, 1152920405095219200
  br i1 %.not.i.i6, label %_ZN4cvc58internal12NodeTemplateILb1EED2Ev.exit7, label %53, !prof !43

53:                                               ; preds = %_ZN4cvc58internal12NodeTemplateILb1EED2Ev.exit
  %54 = add i64 %51, 1152920405095219200
  %55 = and i64 %54, 1152920405095219200
  %56 = and i64 %51, -1152920405095219201
  %57 = or disjoint i64 %55, %56
  store i64 %57, ptr %8, align 8
  %58 = icmp eq i64 %55, 0
  br i1 %58, label %59, label %_ZN4cvc58internal12NodeTemplateILb1EED2Ev.exit7, !prof !43

59:                                               ; preds = %53
  invoke void @_ZN4cvc58internal4expr9NodeValue15markForDeletionEv(ptr noundef nonnull align 8 dereferenceable(24) %8)
          to label %_ZN4cvc58internal12NodeTemplateILb1EED2Ev.exit7 unwind label %60

60:                                               ; preds = %59
  %61 = landingpad { ptr, i32 }
          catch ptr null
  %62 = extractvalue { ptr, i32 } %61, 0
  tail call void @__clang_call_terminate(ptr %62) #25
  unreachable

_ZN4cvc58internal12NodeTemplateILb1EED2Ev.exit7:  ; preds = %_ZN4cvc58internal12NodeTemplateILb1EED2Ev.exit, %53, %59
  ret void

63:                                               ; preds = %36
  %64 = landingpad { ptr, i32 }
          cleanup
  br label %67

65:                                               ; preds = %_ZN4cvc58internal12NodeTemplateILb1EE4nullEv.exit
  %66 = landingpad { ptr, i32 }
          cleanup
  call void @_ZN4cvc58internal12NodeTemplateILb1EED2Ev(ptr noundef nonnull align 8 dereferenceable(8) %7) #23
  br label %67

67:                                               ; preds = %65, %63
  %.pn = phi { ptr, i32 } [ %66, %65 ], [ %64, %63 ]
  call void @_ZN4cvc58internal12NodeTemplateILb1EED2Ev(ptr noundef nonnull align 8 dereferenceable(8) %6) #23
  resume { ptr, i32 } %.pn
}